; Function Attrs: mustprogress uwtable
define noundef range(i64 -2147483648, 2147483648) i64 @_ZNK8QuantLib9Thirty3607US_Impl8dayCountERKNS_4DateES4_(ptr nocapture nonnull readnone align 8 %this, ptr noundef nonnull align 8 dereferenceable(8) %d1, ptr noundef nonnull align 8 dereferenceable(8) %d2) unnamed_addr #0 align 2 {
entry:
  %0 = load i64, ptr %d1, align 8, !tbaa !20
  %call.i.i = tail call noundef i32 @_ZNK8QuantLib4Date4yearEv(ptr noundef nonnull align 8 dereferenceable(8) %d1)
  %call2.i.i = tail call noundef i64 @_ZN8QuantLib4Date10yearOffsetEi(i32 noundef %call.i.i)
  %sub.i.i = sub nsw i64 %0, %call2.i.i
  %conv.i.i = trunc i64 %sub.i.i to i32
  %call2.i = tail call noundef i32 @_ZNK8QuantLib4Date5monthEv(ptr noundef nonnull align 8 dereferenceable(8) %d1)
  %call3.i = tail call noundef i32 @_ZNK8QuantLib4Date4yearEv(ptr noundef nonnull align 8 dereferenceable(8) %d1)
  %call4.i = tail call noundef zeroext i1 @_ZN8QuantLib4Date6isLeapEi(i32 noundef %call3.i)
  %call5.i = tail call noundef i32 @_ZN8QuantLib4Date11monthOffsetENS_5MonthEb(i32 noundef %call2.i, i1 noundef zeroext %call4.i)
  %sub.i = sub nsw i32 %conv.i.i, %call5.i
  %1 = load i64, ptr %d2, align 8, !tbaa !20
  %call.i.i19 = tail call noundef i32 @_ZNK8QuantLib4Date4yearEv(ptr noundef nonnull align 8 dereferenceable(8) %d2)
  %call2.i.i20 = tail call noundef i64 @_ZN8QuantLib4Date10yearOffsetEi(i32 noundef %call.i.i19)
  %sub.i.i21 = sub nsw i64 %1, %call2.i.i20
  %conv.i.i22 = trunc i64 %sub.i.i21 to i32
  %call2.i23 = tail call noundef i32 @_ZNK8QuantLib4Date5monthEv(ptr noundef nonnull align 8 dereferenceable(8) %d2)
  %call3.i24 = tail call noundef i32 @_ZNK8QuantLib4Date4yearEv(ptr noundef nonnull align 8 dereferenceable(8) %d2)
  %call4.i25 = tail call noundef zeroext i1 @_ZN8QuantLib4Date6isLeapEi(i32 noundef %call3.i24)
  %call5.i26 = tail call noundef i32 @_ZN8QuantLib4Date11monthOffsetENS_5MonthEb(i32 noundef %call2.i23, i1 noundef zeroext %call4.i25)
  %sub.i27 = sub nsw i32 %conv.i.i22, %call5.i26
  %call3 = tail call noundef i32 @_ZNK8QuantLib4Date5monthEv(ptr noundef nonnull align 8 dereferenceable(8) %d1)
  %call4 = tail call noundef i32 @_ZNK8QuantLib4Date5monthEv(ptr noundef nonnull align 8 dereferenceable(8) %d2)
  %call5 = tail call noundef i32 @_ZNK8QuantLib4Date4yearEv(ptr noundef nonnull align 8 dereferenceable(8) %d1)
  %call6 = tail call noundef i32 @_ZNK8QuantLib4Date4yearEv(ptr noundef nonnull align 8 dereferenceable(8) %d2)
  %cmp = icmp eq i32 %sub.i, 31
  %spec.store.select = select i1 %cmp, i32 30, i32 %sub.i
  %spec.store.select.fr = freeze i32 %spec.store.select
  %cmp7 = icmp eq i32 %sub.i27, 31
  %cmp8 = icmp sgt i32 %spec.store.select.fr, 29
  %or.cond = and i1 %cmp8, %cmp7
  %spec.store.select1 = select i1 %or.cond, i32 30, i32 %sub.i27
  %cmp.i = icmp eq i32 %call4, 2
  br i1 %cmp.i, label %_ZN8QuantLib12_GLOBAL__N_116isLastOfFebruaryEiNS_5MonthEi.exit, label %if.end15

_ZN8QuantLib12_GLOBAL__N_116isLastOfFebruaryEiNS_5MonthEi.exit: ; preds = %entry
  %call.i = tail call noundef zeroext i1 @_ZN8QuantLib4Date6isLeapEi(i32 noundef %call6)
  %add.i = select i1 %call.i, i32 29, i32 28
  %cmp1.i = icmp eq i32 %spec.store.select1, %add.i
  br i1 %cmp1.i, label %land.lhs.true12, label %if.end15

land.lhs.true12:                                  ; preds = %_ZN8QuantLib12_GLOBAL__N_116isLastOfFebruaryEiNS_5MonthEi.exit
  %cmp.i28 = icmp eq i32 %call3, 2
  br i1 %cmp.i28, label %_ZN8QuantLib12_GLOBAL__N_116isLastOfFebruaryEiNS_5MonthEi.exit33, label %_ZN8QuantLib12_GLOBAL__N_116isLastOfFebruaryEiNS_5MonthEi.exit39.thread

_ZN8QuantLib12_GLOBAL__N_116isLastOfFebruaryEiNS_5MonthEi.exit33: ; preds = %land.lhs.true12
  %call.i30 = tail call noundef zeroext i1 @_ZN8QuantLib4Date6isLeapEi(i32 noundef %call5)
  %add.i31 = select i1 %call.i30, i32 29, i32 28
  %cmp1.i32 = icmp eq i32 %spec.store.select.fr, %add.i31
  %spec.select = select i1 %cmp1.i32, i32 30, i32 %sub.i27
  br label %_ZN8QuantLib12_GLOBAL__N_116isLastOfFebruaryEiNS_5MonthEi.exit39

if.end15:                                         ; preds = %entry, %_ZN8QuantLib12_GLOBAL__N_116isLastOfFebruaryEiNS_5MonthEi.exit
  %cmp.i34 = icmp eq i32 %call3, 2
  br i1 %cmp.i34, label %_ZN8QuantLib12_GLOBAL__N_116isLastOfFebruaryEiNS_5MonthEi.exit39, label %_ZN8QuantLib12_GLOBAL__N_116isLastOfFebruaryEiNS_5MonthEi.exit39.thread

_ZN8QuantLib12_GLOBAL__N_116isLastOfFebruaryEiNS_5MonthEi.exit39: ; preds = %_ZN8QuantLib12_GLOBAL__N_116isLastOfFebruaryEiNS_5MonthEi.exit33, %if.end15
  %dd2.044 = phi i32 [ %spec.store.select1, %if.end15 ], [ %spec.select, %_ZN8QuantLib12_GLOBAL__N_116isLastOfFebruaryEiNS_5MonthEi.exit33 ]
  %call.i36 = tail call noundef zeroext i1 @_ZN8QuantLib4Date6isLeapEi(i32 noundef %call5)
  %add.i37 = select i1 %call.i36, i32 29, i32 28
  %cmp1.i38 = icmp eq i32 %spec.store.select.fr, %add.i37
  %spec.select52 = select i1 %cmp1.i38, i32 30, i32 %spec.store.select.fr
  br label %_ZN8QuantLib12_GLOBAL__N_116isLastOfFebruaryEiNS_5MonthEi.exit39.thread

_ZN8QuantLib12_GLOBAL__N_116isLastOfFebruaryEiNS_5MonthEi.exit39.thread: ; preds = %_ZN8QuantLib12_GLOBAL__N_116isLastOfFebruaryEiNS_5MonthEi.exit39, %land.lhs.true12, %if.end15
  %dd2.04351 = phi i32 [ %spec.store.select1, %if.end15 ], [ %sub.i27, %land.lhs.true12 ], [ %dd2.044, %_ZN8QuantLib12_GLOBAL__N_116isLastOfFebruaryEiNS_5MonthEi.exit39 ]
  %2 = phi i32 [ %spec.store.select.fr, %if.end15 ], [ %spec.store.select.fr, %land.lhs.true12 ], [ %spec.select52, %_ZN8QuantLib12_GLOBAL__N_116isLastOfFebruaryEiNS_5MonthEi.exit39 ]
  %sub = sub nsw i32 %call6, %call5
  %mul = mul nsw i32 %sub, 360
  %sub19 = sub nsw i32 %call4, %call3
  %mul20 = mul nsw i32 %sub19, 30
  %sub21 = add i32 %mul, %mul20
  %add = add i32 %sub21, %dd2.04351
  %add22 = sub i32 %add, %2
  %conv = sext i32 %add22 to i64
  ret i64 %conv
}